; Function Attrs: mustprogress nofree nounwind willreturn memory(argmem: read) uwtable
define internal i32 @pg_latin1_verifystr(ptr noundef %0, i32 noundef %1) #4 {
  %3 = sext i32 %1 to i64
  %4 = tail call ptr @memchr(ptr noundef %0, i32 noundef 0, i64 noundef %3) #9
  %5 = icmp eq ptr %4, null
  %6 = ptrtoint ptr %4 to i64
  %7 = ptrtoint ptr %0 to i64
  %8 = sub i64 %6, %7
  %9 = trunc i64 %8 to i32
  %.0 = select i1 %5, i32 %1, i32 %9
  ret i32 %.0
}